target datalayout = "e-m:e-p270:32:32-p271:32:32-p272:64:64-i64:64-i128:128-f80:128-n8:16:32:64-S128"
target triple = "x86_64-pc-linux-gnu"

%struct.cli_matcher = type { i32, ptr, ptr, ptr, ptr, i32, i32, i32, i32, i32, %struct.cli_hash_patt, %struct.cli_hash_wild, i32, i32, i32, i32, i32, ptr, ptr, ptr, ptr, ptr, ptr, i32, i32, i8, i8, ptr, i16, i8, i32, ptr, i32, i32, i32, ptr, ptr, i32, ptr, i64, i64, ptr }
%struct.cli_hash_patt = type { [3 x %struct.cli_htu32] }
%struct.cli_htu32 = type { ptr, i64, i64, i64 }
%struct.cli_hash_wild = type { [3 x %struct.cli_sz_hash] }
%struct.cli_sz_hash = type { ptr, ptr, i32 }

; Function Attrs: nounwind uwtable
define i32 @cli_hm_have_any(ptr noundef %0, i32 noundef %1) #0 {
  %3 = alloca ptr, align 8
  %4 = alloca i32, align 4
  store ptr %0, ptr %3, align 8
  store i32 %1, ptr %4, align 4
  %5 = load ptr, ptr %3, align 8
  %6 = icmp ne ptr %5, null
  br i1 %6, label %7, label %29

7:                                                ; preds = %2
  %8 = load ptr, ptr %3, align 8
  %9 = getelementptr inbounds %struct.cli_matcher, ptr %8, i32 0, i32 11
  %10 = getelementptr inbounds %struct.cli_hash_wild, ptr %9, i32 0, i32 0
  %11 = load i32, ptr %4, align 4
  %12 = zext i32 %11 to i64
  %13 = getelementptr inbounds [3 x %struct.cli_sz_hash], ptr %10, i64 0, i64 %12
  %14 = getelementptr inbounds %struct.cli_sz_hash, ptr %13, i32 0, i32 2
  %15 = load i32, ptr %14, align 8
  %16 = icmp ne i32 %15, 0
  br i1 %16, label %27, label %17

17:                                               ; preds = %7
  %18 = load ptr, ptr %3, align 8
  %19 = getelementptr inbounds %struct.cli_matcher, ptr %18, i32 0, i32 10
  %20 = getelementptr inbounds %struct.cli_hash_patt, ptr %19, i32 0, i32 0
  %21 = load i32, ptr %4, align 4
  %22 = zext i32 %21 to i64
  %23 = getelementptr inbounds [3 x %struct.cli_htu32], ptr %20, i64 0, i64 %22
  %24 = getelementptr inbounds %struct.cli_htu32, ptr %23, i32 0, i32 1
  %25 = load i64, ptr %24, align 8
  %26 = icmp ne i64 %25, 0
  br label %27

27:                                               ; preds = %17, %7
  %28 = phi i1 [ true, %7 ], [ %26, %17 ]
  br label %29

29:                                               ; preds = %27, %2
  %30 = phi i1 [ false, %2 ], [ %28, %27 ]
  %31 = zext i1 %30 to i32
  ret i32 %31
}