; Function Attrs: mustprogress nofree norecurse nosync nounwind willreturn memory(argmem: read) uwtable
define i32 @cli_hm_have_any(ptr noundef readonly %0, i32 noundef %1) local_unnamed_addr #5 {
  %.not = icmp eq ptr %0, null
  br i1 %.not, label %14, label %3

3:                                                ; preds = %2
  %4 = getelementptr inbounds i8, ptr %0, i64 160
  %5 = zext i32 %1 to i64
  %6 = getelementptr inbounds [3 x %struct.cli_sz_hash], ptr %4, i64 0, i64 %5, i32 2
  %7 = load i32, ptr %6, align 8
  %.not4 = icmp eq i32 %7, 0
  br i1 %.not4, label %8, label %14

8:                                                ; preds = %3
  %9 = getelementptr inbounds i8, ptr %0, i64 64
  %10 = getelementptr inbounds [3 x %struct.cli_htu32], ptr %9, i64 0, i64 %5, i32 1
  %11 = load i64, ptr %10, align 8
  %12 = icmp ne i64 %11, 0
  %13 = zext i1 %12 to i32
  br label %14

14:                                               ; preds = %3, %8, %2
  %15 = phi i32 [ 0, %2 ], [ 1, %3 ], [ %13, %8 ]
  ret i32 %15
}